; Function Attrs: mustprogress uwtable
define void @_ZN11LayerDialog17updateProjectNameERK7QString(ptr noundef nonnull align 8 dereferenceable(256) %0, ptr noundef nonnull align 8 dereferenceable(8) %1) local_unnamed_addr #9 align 2 personality ptr @__gxx_personality_v0 {
  %3 = alloca %class.QVariant, align 8
  %4 = alloca %class.QVariant, align 8
  %5 = alloca %class.QVariant, align 8
  %6 = alloca %class.QFileInfo, align 8
  %7 = alloca %class.QString, align 8
  %8 = alloca %class.QFont, align 8
  %9 = alloca %class.QString, align 8
  tail call void @_ZN7QWidget14setWindowTitleERK7QString(ptr noundef nonnull align 8 dereferenceable(48) %0, ptr noundef nonnull align 8 dereferenceable(8) %1)
  call void @_ZN9QFileInfoC1ERK7QString(ptr noundef nonnull align 8 dereferenceable(8) %6, ptr noundef nonnull align 8 dereferenceable(8) %1)
  %10 = getelementptr inbounds i8, ptr %0, i64 216
  %11 = load ptr, ptr %10, align 8
  %12 = invoke noundef ptr @_ZN7QString16fromAscii_helperEPKci(ptr noundef nonnull @.str.15, i32 noundef 0)
          to label %13 unwind label %44

13:                                               ; preds = %2
  store ptr %12, ptr %7, align 8
  call void @llvm.lifetime.start.p0(i64 16, ptr nonnull %5)
  invoke void @_ZN8QVariantC1ERK7QString(ptr noundef nonnull align 8 dereferenceable(16) %5, ptr noundef nonnull align 8 dereferenceable(8) %7)
          to label %.noexc unwind label %46

.noexc:                                           ; preds = %13
  %14 = load ptr, ptr %11, align 8
  %15 = getelementptr inbounds i8, ptr %14, i64 32
  %16 = load ptr, ptr %15, align 8
  invoke void %16(ptr noundef nonnull align 8 dereferenceable(60) %11, i32 noundef 1, i32 noundef 0, ptr noundef nonnull align 8 dereferenceable(16) %5)
          to label %19 unwind label %17

17:                                               ; preds = %.noexc
  %18 = landingpad { ptr, i32 }
          cleanup
  call void @_ZN8QVariantD1Ev(ptr noundef nonnull align 8 dereferenceable(16) %5) #22
  br label %.body

19:                                               ; preds = %.noexc
  call void @_ZN8QVariantD1Ev(ptr noundef nonnull align 8 dereferenceable(16) %5) #22
  call void @llvm.lifetime.end.p0(i64 16, ptr nonnull %5)
  %20 = load ptr, ptr %7, align 8
  %21 = load atomic i32, ptr %20 monotonic, align 4
  switch i32 %21, label %_ZN9QtPrivate8RefCount5derefEv.exit.i [
    i32 0, label %_ZN9QtPrivate8RefCount5derefEv.exit.thread2.i
    i32 -1, label %_ZN7QStringD2Ev.exit
  ]

_ZN9QtPrivate8RefCount5derefEv.exit.i:            ; preds = %19
  %22 = atomicrmw sub ptr %20, i32 1 seq_cst, align 4
  %.not.i = icmp eq i32 %22, 1
  br i1 %.not.i, label %_ZN9QtPrivate8RefCount5derefEv.exit._ZN9QtPrivate8RefCount5derefEv.exit.thread2_crit_edge.i, label %_ZN7QStringD2Ev.exit

_ZN9QtPrivate8RefCount5derefEv.exit._ZN9QtPrivate8RefCount5derefEv.exit.thread2_crit_edge.i: ; preds = %_ZN9QtPrivate8RefCount5derefEv.exit.i
  %.pre.i = load ptr, ptr %7, align 8
  br label %_ZN9QtPrivate8RefCount5derefEv.exit.thread2.i

_ZN9QtPrivate8RefCount5derefEv.exit.thread2.i:    ; preds = %_ZN9QtPrivate8RefCount5derefEv.exit._ZN9QtPrivate8RefCount5derefEv.exit.thread2_crit_edge.i, %19
  %23 = phi ptr [ %.pre.i, %_ZN9QtPrivate8RefCount5derefEv.exit._ZN9QtPrivate8RefCount5derefEv.exit.thread2_crit_edge.i ], [ %20, %19 ]
  call void @_ZN10QArrayData10deallocateEPS_mm(ptr noundef %23, i64 noundef 2, i64 noundef 8) #22
  br label %_ZN7QStringD2Ev.exit

_ZN7QStringD2Ev.exit:                             ; preds = %19, %_ZN9QtPrivate8RefCount5derefEv.exit.i, %_ZN9QtPrivate8RefCount5derefEv.exit.thread2.i
  invoke void @_ZN5QFontC1Ev(ptr noundef nonnull align 8 dereferenceable(12) %8)
          to label %24 unwind label %44

24:                                               ; preds = %_ZN7QStringD2Ev.exit
  invoke void @_ZN5QFont9setWeightEi(ptr noundef nonnull align 8 dereferenceable(12) %8, i32 noundef 75)
          to label %_ZN5QFont7setBoldEb.exit unwind label %48

_ZN5QFont7setBoldEb.exit:                         ; preds = %24
  %25 = load ptr, ptr %10, align 8
  call void @llvm.lifetime.start.p0(i64 16, ptr nonnull %4)
  invoke void @_ZNK5QFontcv8QVariantEv(ptr dead_on_unwind nonnull writable sret(%class.QVariant) align 8 %4, ptr noundef nonnull align 8 dereferenceable(12) %8)
          to label %.noexc9 unwind label %48

.noexc9:                                          ; preds = %_ZN5QFont7setBoldEb.exit
  %26 = load ptr, ptr %25, align 8
  %27 = getelementptr inbounds i8, ptr %26, i64 32
  %28 = load ptr, ptr %27, align 8
  invoke void %28(ptr noundef nonnull align 8 dereferenceable(60) %25, i32 noundef 2, i32 noundef 6, ptr noundef nonnull align 8 dereferenceable(16) %4)
          to label %31 unwind label %29

29:                                               ; preds = %.noexc9
  %30 = landingpad { ptr, i32 }
          cleanup
  call void @_ZN8QVariantD1Ev(ptr noundef nonnull align 8 dereferenceable(16) %4) #22
  br label %.body10

31:                                               ; preds = %.noexc9
  call void @_ZN8QVariantD1Ev(ptr noundef nonnull align 8 dereferenceable(16) %4) #22
  call void @llvm.lifetime.end.p0(i64 16, ptr nonnull %4)
  %32 = load ptr, ptr %10, align 8
  invoke void @_ZNK9QFileInfo8baseNameEv(ptr dead_on_unwind nonnull writable sret(%class.QString) align 8 %9, ptr noundef nonnull align 8 dereferenceable(8) %6)
          to label %33 unwind label %48

33:                                               ; preds = %31
  call void @llvm.lifetime.start.p0(i64 16, ptr nonnull %3)
  invoke void @_ZN8QVariantC1ERK7QString(ptr noundef nonnull align 8 dereferenceable(16) %3, ptr noundef nonnull align 8 dereferenceable(8) %9)
          to label %.noexc12 unwind label %50

.noexc12:                                         ; preds = %33
  %34 = load ptr, ptr %32, align 8
  %35 = getelementptr inbounds i8, ptr %34, i64 32
  %36 = load ptr, ptr %35, align 8
  invoke void %36(ptr noundef nonnull align 8 dereferenceable(60) %32, i32 noundef 2, i32 noundef 0, ptr noundef nonnull align 8 dereferenceable(16) %3)
          to label %39 unwind label %37

37:                                               ; preds = %.noexc12
  %38 = landingpad { ptr, i32 }
          cleanup
  call void @_ZN8QVariantD1Ev(ptr noundef nonnull align 8 dereferenceable(16) %3) #22
  br label %.body13

39:                                               ; preds = %.noexc12
  call void @_ZN8QVariantD1Ev(ptr noundef nonnull align 8 dereferenceable(16) %3) #22
  call void @llvm.lifetime.end.p0(i64 16, ptr nonnull %3)
  %40 = load ptr, ptr %9, align 8
  %41 = load atomic i32, ptr %40 monotonic, align 4
  switch i32 %41, label %_ZN9QtPrivate8RefCount5derefEv.exit.i17 [
    i32 0, label %_ZN9QtPrivate8RefCount5derefEv.exit.thread2.i16
    i32 -1, label %_ZN7QStringD2Ev.exit21
  ]

_ZN9QtPrivate8RefCount5derefEv.exit.i17:          ; preds = %39
  %42 = atomicrmw sub ptr %40, i32 1 seq_cst, align 4
  %.not.i18 = icmp eq i32 %42, 1
  br i1 %.not.i18, label %_ZN9QtPrivate8RefCount5derefEv.exit._ZN9QtPrivate8RefCount5derefEv.exit.thread2_crit_edge.i19, label %_ZN7QStringD2Ev.exit21

_ZN9QtPrivate8RefCount5derefEv.exit._ZN9QtPrivate8RefCount5derefEv.exit.thread2_crit_edge.i19: ; preds = %_ZN9QtPrivate8RefCount5derefEv.exit.i17
  %.pre.i20 = load ptr, ptr %9, align 8
  br label %_ZN9QtPrivate8RefCount5derefEv.exit.thread2.i16

_ZN9QtPrivate8RefCount5derefEv.exit.thread2.i16:  ; preds = %_ZN9QtPrivate8RefCount5derefEv.exit._ZN9QtPrivate8RefCount5derefEv.exit.thread2_crit_edge.i19, %39
  %43 = phi ptr [ %.pre.i20, %_ZN9QtPrivate8RefCount5derefEv.exit._ZN9QtPrivate8RefCount5derefEv.exit.thread2_crit_edge.i19 ], [ %40, %39 ]
  call void @_ZN10QArrayData10deallocateEPS_mm(ptr noundef %43, i64 noundef 2, i64 noundef 8) #22
  br label %_ZN7QStringD2Ev.exit21

_ZN7QStringD2Ev.exit21:                           ; preds = %39, %_ZN9QtPrivate8RefCount5derefEv.exit.i17, %_ZN9QtPrivate8RefCount5derefEv.exit.thread2.i16
  call void @_ZN5QFontD1Ev(ptr noundef nonnull align 8 dereferenceable(12) %8) #22
  call void @_ZN9QFileInfoD1Ev(ptr noundef nonnull align 8 dereferenceable(8) %6) #22
  ret void

44:                                               ; preds = %2, %_ZN7QStringD2Ev.exit
  %45 = landingpad { ptr, i32 }
          cleanup
  br label %52

46:                                               ; preds = %13
  %47 = landingpad { ptr, i32 }
          cleanup
  br label %.body

.body:                                            ; preds = %17, %46
  %eh.lpad-body = phi { ptr, i32 } [ %47, %46 ], [ %18, %17 ]
  call void @_ZN7QStringD2Ev(ptr noundef nonnull align 8 dereferenceable(8) %7) #22
  br label %52

48:                                               ; preds = %_ZN5QFont7setBoldEb.exit, %24, %31
  %49 = landingpad { ptr, i32 }
          cleanup
  br label %.body10

50:                                               ; preds = %33
  %51 = landingpad { ptr, i32 }
          cleanup
  br label %.body13

.body13:                                          ; preds = %37, %50
  %eh.lpad-body14 = phi { ptr, i32 } [ %51, %50 ], [ %38, %37 ]
  call void @_ZN7QStringD2Ev(ptr noundef nonnull align 8 dereferenceable(8) %9) #22
  br label %.body10

.body10:                                          ; preds = %48, %29, %.body13
  %.pn = phi { ptr, i32 } [ %eh.lpad-body14, %.body13 ], [ %49, %48 ], [ %30, %29 ]
  call void @_ZN5QFontD1Ev(ptr noundef nonnull align 8 dereferenceable(12) %8) #22
  br label %52

52:                                               ; preds = %.body10, %.body, %44
  %.pn.pn = phi { ptr, i32 } [ %.pn, %.body10 ], [ %45, %44 ], [ %eh.lpad-body, %.body ]
  call void @_ZN9QFileInfoD1Ev(ptr noundef nonnull align 8 dereferenceable(8) %6) #22
  resume { ptr, i32 } %.pn.pn
}